; Function Attrs: nounwind uwtable
define dso_local i64 @datum_to_json(i64 noundef %0, i32 noundef %1, i32 noundef %2) local_unnamed_addr #0 {
  %4 = tail call ptr @makeStringInfo() #10
  tail call fastcc void @datum_to_json_internal(i64 noundef %0, i1 noundef zeroext false, ptr noundef %4, i32 noundef %1, i32 noundef %2, i1 noundef zeroext false)
  %5 = load ptr, ptr %4, align 8
  %6 = getelementptr inbounds nuw i8, ptr %4, i64 8
  %7 = load i32, ptr %6, align 8
  %8 = tail call ptr @cstring_to_text_with_len(ptr noundef %5, i32 noundef %7) #10
  %9 = ptrtoint ptr %8 to i64
  ret i64 %9
}